; Function Attrs: nounwind uwtable
define dso_local range(i32 -30, 1) i32 @archive_match_include_pattern_w(ptr noundef %0, ptr noundef %1) local_unnamed_addr #0 {
  %3 = tail call i32 @__archive_check_magic(ptr noundef %0, i32 noundef 212668873, i32 noundef 1, ptr noundef nonnull @.str.9) #14
  %.not = icmp eq i32 %3, -30
  br i1 %.not, label %add_pattern_wcs.exit, label %4

4:                                                ; preds = %2
  %5 = icmp eq ptr %1, null
  br i1 %5, label %9, label %6

6:                                                ; preds = %4
  %7 = load i32, ptr %1, align 4, !tbaa !51
  %8 = icmp eq i32 %7, 0
  br i1 %8, label %9, label %10

9:                                                ; preds = %6, %4
  tail call void (ptr, i32, ptr, ...) @archive_set_error(ptr noundef %0, i32 noundef 22, ptr noundef nonnull @.str.4) #14
  br label %add_pattern_wcs.exit

10:                                               ; preds = %6
  %11 = tail call noalias dereferenceable_or_null(120) ptr @calloc(i64 noundef 1, i64 noundef 120) #13
  %12 = icmp eq ptr %11, null
  br i1 %12, label %13, label %15

13:                                               ; preds = %10
  tail call void (ptr, i32, ptr, ...) @archive_set_error(ptr noundef %0, i32 noundef 12, ptr noundef nonnull @.str.32) #14
  %14 = getelementptr inbounds nuw i8, ptr %0, i64 4
  store i32 32768, ptr %14, align 4, !tbaa !27
  br label %add_pattern_wcs.exit

15:                                               ; preds = %10
  %16 = tail call i64 @wcslen(ptr noundef nonnull %1) #16
  %.not.i = icmp eq i64 %16, 0
  br i1 %.not.i, label %23, label %17

17:                                               ; preds = %15
  %18 = getelementptr i32, ptr %1, i64 %16
  %19 = getelementptr i8, ptr %18, i64 -4
  %20 = load i32, ptr %19, align 4, !tbaa !51
  %21 = icmp eq i32 %20, 47
  %22 = sext i1 %21 to i64
  %spec.select.i = add i64 %16, %22
  br label %23

23:                                               ; preds = %17, %15
  %.0.i = phi i64 [ 0, %15 ], [ %spec.select.i, %17 ]
  %24 = getelementptr inbounds nuw i8, ptr %11, i64 16
  %25 = tail call i32 @archive_mstring_copy_wcs_len(ptr noundef nonnull %24, ptr noundef nonnull %1, i64 noundef %.0.i) #14
  %26 = getelementptr inbounds nuw i8, ptr %0, i64 200
  %27 = load ptr, ptr %26, align 8, !tbaa !29
  store ptr %11, ptr %27, align 8, !tbaa !49
  store ptr %11, ptr %26, align 8, !tbaa !29
  %28 = getelementptr inbounds nuw i8, ptr %0, i64 208
  %29 = load i32, ptr %28, align 8, !tbaa !34
  %30 = add nsw i32 %29, 1
  store i32 %30, ptr %28, align 8, !tbaa !34
  %31 = getelementptr inbounds nuw i8, ptr %0, i64 212
  %32 = load i32, ptr %31, align 4, !tbaa !87
  %33 = add nsw i32 %32, 1
  store i32 %33, ptr %31, align 4, !tbaa !87
  %34 = getelementptr inbounds nuw i8, ptr %0, i64 144
  %35 = load i32, ptr %34, align 8, !tbaa !48
  %36 = or i32 %35, 1
  store i32 %36, ptr %34, align 8, !tbaa !48
  br label %add_pattern_wcs.exit

add_pattern_wcs.exit:                             ; preds = %23, %13, %2, %9
  %.1 = phi i32 [ -25, %9 ], [ -30, %2 ], [ -30, %13 ], [ 0, %23 ]
  ret i32 %.1
}